target datalayout = "e-m:e-p270:32:32-p271:32:32-p272:64:64-i64:64-i128:128-f80:128-n8:16:32:64-S128"
target triple = "x86_64-pc-linux-gnu"

%struct.AVFilterContext = type { ptr, ptr, ptr, ptr, ptr, i32, ptr, ptr, i32, ptr, ptr, i32, i32, ptr, ptr, ptr, ptr, i32, ptr, i32, i32 }
%struct.EvalContext = type { ptr, ptr, i32, %struct.AVChannelLayout, ptr, i32, i32, i32, i64, ptr, ptr, i32, i64, i64, [6 x double], ptr }
%struct.AVChannelLayout = type { i32, i32, %union.anon.1, ptr }
%union.anon.1 = type { i64 }

; Function Attrs: cold nounwind optsize uwtable
define internal void @uninit(ptr noundef %0) #0 {
  %2 = alloca ptr, align 8
  %3 = alloca ptr, align 8
  %4 = alloca i32, align 4
  store ptr %0, ptr %2, align 8, !tbaa !4
  call void @llvm.lifetime.start.p0(i64 8, ptr %3) #9
  %5 = load ptr, ptr %2, align 8, !tbaa !4
  %6 = getelementptr inbounds nuw %struct.AVFilterContext, ptr %5, i32 0, i32 9
  %7 = load ptr, ptr %6, align 8, !tbaa !9
  store ptr %7, ptr %3, align 8, !tbaa !22
  call void @llvm.lifetime.start.p0(i64 4, ptr %4) #9
  store i32 0, ptr %4, align 4, !tbaa !24
  br label %8

8:                                                ; preds = %28, %1
  %9 = load i32, ptr %4, align 4, !tbaa !24
  %10 = load ptr, ptr %3, align 8, !tbaa !22
  %11 = getelementptr inbounds nuw %struct.EvalContext, ptr %10, i32 0, i32 5
  %12 = load i32, ptr %11, align 8, !tbaa !35
  %13 = icmp slt i32 %9, %12
  br i1 %13, label %14, label %31

14:                                               ; preds = %8
  %15 = load ptr, ptr %3, align 8, !tbaa !22
  %16 = getelementptr inbounds nuw %struct.EvalContext, ptr %15, i32 0, i32 9
  %17 = load ptr, ptr %16, align 8, !tbaa !38
  %18 = load i32, ptr %4, align 4, !tbaa !24
  %19 = sext i32 %18 to i64
  %20 = getelementptr inbounds ptr, ptr %17, i64 %19
  %21 = load ptr, ptr %20, align 8, !tbaa !39
  call void @av_expr_free(ptr noundef %21)
  %22 = load ptr, ptr %3, align 8, !tbaa !22
  %23 = getelementptr inbounds nuw %struct.EvalContext, ptr %22, i32 0, i32 9
  %24 = load ptr, ptr %23, align 8, !tbaa !38
  %25 = load i32, ptr %4, align 4, !tbaa !24
  %26 = sext i32 %25 to i64
  %27 = getelementptr inbounds ptr, ptr %24, i64 %26
  store ptr null, ptr %27, align 8, !tbaa !39
  br label %28

28:                                               ; preds = %14
  %29 = load i32, ptr %4, align 4, !tbaa !24
  %30 = add nsw i32 %29, 1
  store i32 %30, ptr %4, align 4, !tbaa !24
  br label %8, !llvm.loop !41

31:                                               ; preds = %8
  %32 = load ptr, ptr %3, align 8, !tbaa !22
  %33 = getelementptr inbounds nuw %struct.EvalContext, ptr %32, i32 0, i32 9
  call void @av_freep(ptr noundef %33)
  %34 = load ptr, ptr %3, align 8, !tbaa !22
  %35 = getelementptr inbounds nuw %struct.EvalContext, ptr %34, i32 0, i32 15
  call void @av_freep(ptr noundef %35)
  %36 = load ptr, ptr %3, align 8, !tbaa !22
  %37 = getelementptr inbounds nuw %struct.EvalContext, ptr %36, i32 0, i32 3
  call void @av_channel_layout_uninit(ptr noundef %37)
  call void @llvm.lifetime.end.p0(i64 4, ptr %4) #9
  call void @llvm.lifetime.end.p0(i64 8, ptr %3) #9
  ret void
}