; Function Attrs: cold nounwind optsize uwtable
define internal void @uninit(ptr noundef readonly captures(none) %0) #0 {
  %2 = getelementptr inbounds nuw i8, ptr %0, i64 72
  %3 = load ptr, ptr %2, align 8, !tbaa !4
  %4 = getelementptr inbounds nuw i8, ptr %3, i64 56
  %5 = load i32, ptr %4, align 8, !tbaa !30
  %6 = icmp sgt i32 %5, 0
  br i1 %6, label %.lr.ph, label %._crit_edge

.lr.ph:                                           ; preds = %1
  %7 = getelementptr inbounds nuw i8, ptr %3, i64 80
  %.pre = load ptr, ptr %7, align 8, !tbaa !33
  br label %8

8:                                                ; preds = %.lr.ph, %8
  %9 = phi ptr [ %.pre, %.lr.ph ], [ %12, %8 ]
  %indvars.iv = phi i64 [ 0, %.lr.ph ], [ %indvars.iv.next, %8 ]
  %10 = getelementptr inbounds nuw ptr, ptr %9, i64 %indvars.iv
  %11 = load ptr, ptr %10, align 8, !tbaa !34
  tail call void @av_expr_free(ptr noundef %11) #11
  %12 = load ptr, ptr %7, align 8, !tbaa !33
  %13 = getelementptr inbounds nuw ptr, ptr %12, i64 %indvars.iv
  store ptr null, ptr %13, align 8, !tbaa !34
  %indvars.iv.next = add nuw nsw i64 %indvars.iv, 1
  %14 = load i32, ptr %4, align 8, !tbaa !30
  %15 = sext i32 %14 to i64
  %16 = icmp slt i64 %indvars.iv.next, %15
  br i1 %16, label %8, label %._crit_edge, !llvm.loop !36

._crit_edge:                                      ; preds = %8, %1
  %17 = getelementptr inbounds nuw i8, ptr %3, i64 80
  tail call void @av_freep(ptr noundef nonnull %17) #11
  %18 = getelementptr inbounds nuw i8, ptr %3, i64 168
  tail call void @av_freep(ptr noundef nonnull %18) #11
  %19 = getelementptr inbounds nuw i8, ptr %3, i64 24
  tail call void @av_channel_layout_uninit(ptr noundef nonnull %19) #11
  ret void
}